; ModuleID = '43/1758.c'
source_filename = "43/1758.c"
target datalayout = "e-m:e-p270:32:32-p271:32:32-p272:64:64-i64:64-f80:128-n8:16:32:64-S128"
target triple = "x86_64-pc-linux-gnu"

@.str = private unnamed_addr constant [7 x i8] c"%d %d\0A\00", align 1
@.str.1 = private unnamed_addr constant [3 x i8] c"%d\00", align 1

; Function Attrs: noinline nounwind uwtable
define dso_local i32 @f(i32 %0, i32 %1) #0 {
  %3 = alloca i32, align 4
  %4 = alloca i32, align 4
  %5 = alloca i32, align 4
  %6 = alloca i32, align 4
  %7 = alloca i32, align 4
  %8 = alloca i32, align 4
  store i32 %0, i32* %4, align 4
  store i32 %1, i32* %5, align 4
  store i32 0, i32* %7, align 4
  store i32 2, i32* %6, align 4
  br label %9

9:                                                ; preds = %23, %2
  %10 = load i32, i32* %6, align 4
  %11 = sitofp i32 %10 to double
  %12 = load i32, i32* %4, align 4
  %13 = sitofp i32 %12 to double
  %14 = call double @sqrt(double %13) #3
  %15 = fcmp ole double %11, %14
  br i1 %15, label %16, label %26

16:                                               ; preds = %9
  %17 = load i32, i32* %4, align 4
  %18 = load i32, i32* %6, align 4
  %19 = srem i32 %17, %18
  %20 = icmp eq i32 %19, 0
  br i1 %20, label %21, label %22

21:                                               ; preds = %16
  store i32 -1, i32* %7, align 4
  br label %22

22:                                               ; preds = %21, %16
  br label %23

23:                                               ; preds = %22
  %24 = load i32, i32* %6, align 4
  %25 = add nsw i32 %24, 1
  store i32 %25, i32* %6, align 4
  br label %9

26:                                               ; preds = %9
  %27 = load i32, i32* %7, align 4
  %28 = icmp eq i32 %27, 0
  br i1 %28, label %29, label %52

29:                                               ; preds = %26
  store i32 2, i32* %8, align 4
  br label %30

30:                                               ; preds = %48, %29
  %31 = load i32, i32* %8, align 4
  %32 = sitofp i32 %31 to double
  %33 = load i32, i32* %5, align 4
  %34 = load i32, i32* %4, align 4
  %35 = sub nsw i32 %33, %34
  %36 = sitofp i32 %35 to double
  %37 = call double @sqrt(double %36) #3
  %38 = fcmp ole double %32, %37
  br i1 %38, label %39, label %51

39:                                               ; preds = %30
  %40 = load i32, i32* %5, align 4
  %41 = load i32, i32* %4, align 4
  %42 = sub nsw i32 %40, %41
  %43 = load i32, i32* %8, align 4
  %44 = srem i32 %42, %43
  %45 = icmp eq i32 %44, 0
  br i1 %45, label %46, label %47

46:                                               ; preds = %39
  store i32 -1, i32* %7, align 4
  br label %47

47:                                               ; preds = %46, %39
  br label %48

48:                                               ; preds = %47
  %49 = load i32, i32* %8, align 4
  %50 = add nsw i32 %49, 1
  store i32 %50, i32* %8, align 4
  br label %30

51:                                               ; preds = %30
  br label %52

52:                                               ; preds = %51, %26
  %53 = load i32, i32* %7, align 4
  %54 = icmp eq i32 %53, 0
  br i1 %54, label %55, label %61

55:                                               ; preds = %52
  %56 = load i32, i32* %4, align 4
  %57 = load i32, i32* %5, align 4
  %58 = load i32, i32* %4, align 4
  %59 = sub nsw i32 %57, %58
  %60 = call i32 (i8*, ...) @printf(i8* getelementptr inbounds ([7 x i8], [7 x i8]* @.str, i64 0, i64 0), i32 %56, i32 %59)
  br label %61

61:                                               ; preds = %55, %52
  %62 = load i32, i32* %3, align 4
  ret i32 %62
}

; Function Attrs: nounwind
declare dso_local double @sqrt(double) #1

declare dso_local i32 @printf(i8*, ...) #2

; Function Attrs: noinline nounwind uwtable
define dso_local i32 @main() #0 {
  %1 = alloca i32, align 4
  %2 = alloca i32, align 4
  %3 = alloca i32, align 4
  %4 = alloca i32, align 4
  %5 = alloca [100 x i32], align 16
  %6 = alloca i32, align 4
  %7 = alloca i32, align 4
  %8 = alloca i32, align 4
  %9 = alloca i32, align 4
  %10 = alloca i32, align 4
  %11 = alloca i32, align 4
  %12 = alloca i32, align 4
  %13 = alloca i32, align 4
  %14 = alloca i32, align 4
  %15 = alloca i32, align 4
  %16 = alloca i32, align 4
  %17 = alloca i32, align 4
  %18 = alloca i32, align 4
  %19 = alloca i32, align 4
  %20 = alloca i32, align 4
  %21 = alloca i32, align 4
  %22 = alloca i64, align 8
  %23 = alloca i64, align 8
  %24 = alloca i64, align 8
  %25 = alloca i64, align 8
  %26 = alloca i64, align 8
  %27 = alloca i64, align 8
  %28 = alloca i64, align 8
  %29 = alloca double, align 8
  %30 = alloca double, align 8
  %31 = alloca [100 x double], align 16
  store i32 0, i32* %1, align 4
  %32 = call i32 (i8*, ...) @__isoc99_scanf(i8* getelementptr inbounds ([3 x i8], [3 x i8]* @.str.1, i64 0, i64 0), i32* %8)
  store i32 3, i32* %9, align 4
  br label %33

33:                                               ; preds = %42, %0
  %34 = load i32, i32* %9, align 4
  %35 = load i32, i32* %8, align 4
  %36 = sdiv i32 %35, 2
  %37 = icmp sle i32 %34, %36
  br i1 %37, label %38, label %45

38:                                               ; preds = %33
  %39 = load i32, i32* %9, align 4
  %40 = load i32, i32* %8, align 4
  %41 = call i32 @f(i32 %39, i32 %40)
  br label %42

42:                                               ; preds = %38
  %43 = load i32, i32* %9, align 4
  %44 = add nsw i32 %43, 2
  store i32 %44, i32* %9, align 4
  br label %33

45:                                               ; preds = %33
  ret i32 0
}

declare dso_local i32 @__isoc99_scanf(i8*, ...) #2


!llvm.module.flags = !{!0}
!llvm.ident = !{!1}

!0 = !{i32 1, !"wchar_size", i32 4}
!1 = !{!"clang version 10.0.0-4ubuntu1 "}
